; ModuleID = '17/743.c'
source_filename = "17/743.c"
target datalayout = "e-m:e-p270:32:32-p271:32:32-p272:64:64-i64:64-f80:128-n8:16:32:64-S128"
target triple = "x86_64-pc-linux-gnu"

@.str = private unnamed_addr constant [3 x i8] c"%c\00", align 1
@.str.1 = private unnamed_addr constant [2 x i8] c"\0A\00", align 1

; Function Attrs: noinline nounwind uwtable
define dso_local void @main() #0 {
  %1 = alloca i32, align 4
  %2 = alloca i32, align 4
  %3 = alloca i32, align 4
  %4 = alloca i32, align 4
  %5 = alloca i32, align 4
  %6 = alloca [102 x i8], align 16
  %7 = alloca [102 x i8], align 16
  store i32 0, i32* %4, align 4
  br label %8

8:                                                ; preds = %170, %0
  %9 = getelementptr inbounds [102 x i8], [102 x i8]* %6, i64 0, i64 1
  %10 = call i32 (i8*, ...) @__isoc99_scanf(i8* getelementptr inbounds ([3 x i8], [3 x i8]* @.str, i64 0, i64 0), i8* %9)
  %11 = icmp ne i32 %10, -1
  br i1 %11, label %12, label %171

12:                                               ; preds = %8
  store i32 1, i32* %1, align 4
  br label %13

13:                                               ; preds = %20, %12
  %14 = load i32, i32* %1, align 4
  %15 = sext i32 %14 to i64
  %16 = getelementptr inbounds [102 x i8], [102 x i8]* %6, i64 0, i64 %15
  %17 = load i8, i8* %16, align 1
  %18 = sext i8 %17 to i32
  %19 = icmp ne i32 %18, 10
  br i1 %19, label %20, label %27

20:                                               ; preds = %13
  %21 = load i32, i32* %1, align 4
  %22 = add nsw i32 %21, 1
  store i32 %22, i32* %1, align 4
  %23 = load i32, i32* %1, align 4
  %24 = sext i32 %23 to i64
  %25 = getelementptr inbounds [102 x i8], [102 x i8]* %6, i64 0, i64 %24
  %26 = call i32 (i8*, ...) @__isoc99_scanf(i8* getelementptr inbounds ([3 x i8], [3 x i8]* @.str, i64 0, i64 0), i8* %25)
  br label %13

27:                                               ; preds = %13
  store i32 1, i32* %3, align 4
  br label %28

28:                                               ; preds = %40, %27
  %29 = load i32, i32* %3, align 4
  %30 = load i32, i32* %1, align 4
  %31 = sub nsw i32 %30, 1
  %32 = icmp sle i32 %29, %31
  br i1 %32, label %33, label %43

33:                                               ; preds = %28
  %34 = load i32, i32* %3, align 4
  %35 = sext i32 %34 to i64
  %36 = getelementptr inbounds [102 x i8], [102 x i8]* %6, i64 0, i64 %35
  %37 = load i8, i8* %36, align 1
  %38 = sext i8 %37 to i32
  %39 = call i32 (i8*, ...) @printf(i8* getelementptr inbounds ([3 x i8], [3 x i8]* @.str, i64 0, i64 0), i32 %38)
  br label %40

40:                                               ; preds = %33
  %41 = load i32, i32* %3, align 4
  %42 = add nsw i32 %41, 1
  store i32 %42, i32* %3, align 4
  br label %28

43:                                               ; preds = %28
  %44 = call i32 (i8*, ...) @printf(i8* getelementptr inbounds ([2 x i8], [2 x i8]* @.str.1, i64 0, i64 0))
  store i32 0, i32* %4, align 4
  store i32 1, i32* %3, align 4
  br label %45

45:                                               ; preds = %91, %43
  %46 = load i32, i32* %3, align 4
  %47 = load i32, i32* %1, align 4
  %48 = sub nsw i32 %47, 1
  %49 = icmp sle i32 %46, %48
  br i1 %49, label %50, label %94

50:                                               ; preds = %45
  %51 = load i32, i32* %3, align 4
  %52 = sext i32 %51 to i64
  %53 = getelementptr inbounds [102 x i8], [102 x i8]* %7, i64 0, i64 %52
  store i8 32, i8* %53, align 1
  %54 = load i32, i32* %3, align 4
  %55 = sext i32 %54 to i64
  %56 = getelementptr inbounds [102 x i8], [102 x i8]* %6, i64 0, i64 %55
  %57 = load i8, i8* %56, align 1
  %58 = sext i8 %57 to i32
  %59 = icmp eq i32 %58, 41
  br i1 %59, label %60, label %67

60:                                               ; preds = %50
  %61 = load i32, i32* %4, align 4
  %62 = icmp eq i32 %61, 0
  br i1 %62, label %63, label %67

63:                                               ; preds = %60
  %64 = load i32, i32* %3, align 4
  %65 = sext i32 %64 to i64
  %66 = getelementptr inbounds [102 x i8], [102 x i8]* %7, i64 0, i64 %65
  store i8 63, i8* %66, align 1
  br label %67

67:                                               ; preds = %63, %60, %50
  %68 = load i32, i32* %3, align 4
  %69 = sext i32 %68 to i64
  %70 = getelementptr inbounds [102 x i8], [102 x i8]* %6, i64 0, i64 %69
  %71 = load i8, i8* %70, align 1
  %72 = sext i8 %71 to i32
  %73 = icmp eq i32 %72, 40
  br i1 %73, label %74, label %77

74:                                               ; preds = %67
  %75 = load i32, i32* %4, align 4
  %76 = add nsw i32 %75, 1
  store i32 %76, i32* %4, align 4
  br label %77

77:                                               ; preds = %74, %67
  %78 = load i32, i32* %3, align 4
  %79 = sext i32 %78 to i64
  %80 = getelementptr inbounds [102 x i8], [102 x i8]* %6, i64 0, i64 %79
  %81 = load i8, i8* %80, align 1
  %82 = sext i8 %81 to i32
  %83 = icmp eq i32 %82, 41
  br i1 %83, label %84, label %90

84:                                               ; preds = %77
  %85 = load i32, i32* %4, align 4
  %86 = icmp ne i32 %85, 0
  br i1 %86, label %87, label %90

87:                                               ; preds = %84
  %88 = load i32, i32* %4, align 4
  %89 = sub nsw i32 %88, 1
  store i32 %89, i32* %4, align 4
  br label %90

90:                                               ; preds = %87, %84, %77
  br label %91

91:                                               ; preds = %90
  %92 = load i32, i32* %3, align 4
  %93 = add nsw i32 %92, 1
  store i32 %93, i32* %3, align 4
  br label %45

94:                                               ; preds = %45
  store i32 0, i32* %4, align 4
  %95 = load i32, i32* %1, align 4
  %96 = sub nsw i32 %95, 1
  store i32 %96, i32* %3, align 4
  br label %97

97:                                               ; preds = %138, %94
  %98 = load i32, i32* %3, align 4
  %99 = icmp sge i32 %98, 1
  br i1 %99, label %100, label %141

100:                                              ; preds = %97
  %101 = load i32, i32* %3, align 4
  %102 = sext i32 %101 to i64
  %103 = getelementptr inbounds [102 x i8], [102 x i8]* %6, i64 0, i64 %102
  %104 = load i8, i8* %103, align 1
  %105 = sext i8 %104 to i32
  %106 = icmp eq i32 %105, 41
  br i1 %106, label %107, label %110

107:                                              ; preds = %100
  %108 = load i32, i32* %4, align 4
  %109 = add nsw i32 %108, 1
  store i32 %109, i32* %4, align 4
  br label %110

110:                                              ; preds = %107, %100
  %111 = load i32, i32* %3, align 4
  %112 = sext i32 %111 to i64
  %113 = getelementptr inbounds [102 x i8], [102 x i8]* %6, i64 0, i64 %112
  %114 = load i8, i8* %113, align 1
  %115 = sext i8 %114 to i32
  %116 = icmp eq i32 %115, 40
  br i1 %116, label %117, label %124

117:                                              ; preds = %110
  %118 = load i32, i32* %4, align 4
  %119 = icmp eq i32 %118, 0
  br i1 %119, label %120, label %124

120:                                              ; preds = %117
  %121 = load i32, i32* %3, align 4
  %122 = sext i32 %121 to i64
  %123 = getelementptr inbounds [102 x i8], [102 x i8]* %7, i64 0, i64 %122
  store i8 36, i8* %123, align 1
  br label %124

124:                                              ; preds = %120, %117, %110
  %125 = load i32, i32* %3, align 4
  %126 = sext i32 %125 to i64
  %127 = getelementptr inbounds [102 x i8], [102 x i8]* %6, i64 0, i64 %126
  %128 = load i8, i8* %127, align 1
  %129 = sext i8 %128 to i32
  %130 = icmp eq i32 %129, 40
  br i1 %130, label %131, label %137

131:                                              ; preds = %124
  %132 = load i32, i32* %4, align 4
  %133 = icmp ne i32 %132, 0
  br i1 %133, label %134, label %137

134:                                              ; preds = %131
  %135 = load i32, i32* %4, align 4
  %136 = sub nsw i32 %135, 1
  store i32 %136, i32* %4, align 4
  br label %137

137:                                              ; preds = %134, %131, %124
  br label %138

138:                                              ; preds = %137
  %139 = load i32, i32* %3, align 4
  %140 = add nsw i32 %139, -1
  store i32 %140, i32* %3, align 4
  br label %97

141:                                              ; preds = %97
  store i32 1, i32* %5, align 4
  br label %142

142:                                              ; preds = %154, %141
  %143 = load i32, i32* %5, align 4
  %144 = load i32, i32* %1, align 4
  %145 = sub nsw i32 %144, 1
  %146 = icmp sle i32 %143, %145
  br i1 %146, label %147, label %157

147:                                              ; preds = %142
  %148 = load i32, i32* %5, align 4
  %149 = sext i32 %148 to i64
  %150 = getelementptr inbounds [102 x i8], [102 x i8]* %7, i64 0, i64 %149
  %151 = load i8, i8* %150, align 1
  %152 = sext i8 %151 to i32
  %153 = call i32 (i8*, ...) @printf(i8* getelementptr inbounds ([3 x i8], [3 x i8]* @.str, i64 0, i64 0), i32 %152)
  br label %154

154:                                              ; preds = %147
  %155 = load i32, i32* %5, align 4
  %156 = add nsw i32 %155, 1
  store i32 %156, i32* %5, align 4
  br label %142

157:                                              ; preds = %142
  %158 = call i32 (i8*, ...) @printf(i8* getelementptr inbounds ([2 x i8], [2 x i8]* @.str.1, i64 0, i64 0))
  store i32 1, i32* %2, align 4
  br label %159

159:                                              ; preds = %167, %157
  %160 = load i32, i32* %2, align 4
  %161 = load i32, i32* %1, align 4
  %162 = icmp sle i32 %160, %161
  br i1 %162, label %163, label %170

163:                                              ; preds = %159
  %164 = load i32, i32* %2, align 4
  %165 = sext i32 %164 to i64
  %166 = getelementptr inbounds [102 x i8], [102 x i8]* %7, i64 0, i64 %165
  store i8 0, i8* %166, align 1
  br label %167

167:                                              ; preds = %163
  %168 = load i32, i32* %2, align 4
  %169 = add nsw i32 %168, 1
  store i32 %169, i32* %2, align 4
  br label %159

170:                                              ; preds = %159
  br label %8

171:                                              ; preds = %8
  ret void
}

declare dso_local i32 @__isoc99_scanf(i8*, ...) #1

declare dso_local i32 @printf(i8*, ...) #1


!llvm.module.flags = !{!0}
!llvm.ident = !{!1}

!0 = !{i32 1, !"wchar_size", i32 4}
!1 = !{!"clang version 10.0.0-4ubuntu1 "}
